; Function Attrs: mustprogress uwtable
define void @_ZN5osgeo4proj11coordinates18CoordinateMetadata6createERKN7dropbox6oxygen2nnISt10shared_ptrINS0_3crs3CRSEEEEd(ptr dead_on_unwind noalias writable sret(%"class.dropbox::oxygen::nn.34") align 8 %0, ptr noundef nonnull align 8 dereferenceable(16) %1, double noundef %2) local_unnamed_addr #0 align 2 personality ptr @__gxx_personality_v0 {
  %4 = alloca %"class.std::shared_ptr.66", align 8
  call void @llvm.memset.p0.i64(ptr noundef nonnull align 8 dereferenceable(16) %4, i8 0, i64 16, i1 false)
  invoke void @_ZN5osgeo4proj11coordinates18CoordinateMetadata6createERKN7dropbox6oxygen2nnISt10shared_ptrINS0_3crs3CRSEEEEdRKS6_INS0_2io15DatabaseContextEE(ptr dead_on_unwind writable sret(%"class.dropbox::oxygen::nn.34") align 8 %0, ptr noundef nonnull align 8 dereferenceable(16) %1, double noundef %2, ptr noundef nonnull align 8 dereferenceable(16) %4)
          to label %_ZNSt10shared_ptrIN5osgeo4proj2io15DatabaseContextEED2Ev.exit unwind label %5

_ZNSt10shared_ptrIN5osgeo4proj2io15DatabaseContextEED2Ev.exit: ; preds = %3
  ret void

5:                                                ; preds = %3
  %6 = landingpad { ptr, i32 }
          cleanup
  call void @_ZNSt10shared_ptrIN5osgeo4proj2io15DatabaseContextEED2Ev(ptr noundef nonnull align 8 dereferenceable(16) %4) #16
  resume { ptr, i32 } %6
}